target datalayout = "e-m:e-p270:32:32-p271:32:32-p272:64:64-i64:64-i128:128-f80:128-n8:16:32:64-S128"
target triple = "x86_64-pc-linux-gnu"

@s_encoding_short = internal global i64 0, align 8
@s_ruby2_keywords_flag = internal global i64 0, align 8
@rb_eRuntimeError = external global i64, align 8
@.str.52 = private unnamed_addr constant [28 x i8] c"too many instance variables\00", align 1

; Function Attrs: inlinehint nounwind sspstrong uwtable
define internal zeroext i1 @to_be_skipped_id(i64 noundef %0) #5 {
  %2 = alloca i1, align 1
  %3 = alloca i64, align 8
  store i64 %0, ptr %3, align 8, !tbaa !7
  %4 = load i64, ptr %3, align 8, !tbaa !7
  %5 = load i64, ptr @s_encoding_short, align 8, !tbaa !7
  %6 = icmp eq i64 %4, %5
  br i1 %6, label %7, label %8

7:                                                ; preds = %1
  store i1 true, ptr %2, align 1
  br label %23

8:                                                ; preds = %1
  %9 = load i64, ptr %3, align 8, !tbaa !7
  %10 = load i64, ptr @s_ruby2_keywords_flag, align 8, !tbaa !7
  %11 = icmp eq i64 %9, %10
  br i1 %11, label %12, label %13

12:                                               ; preds = %8
  store i1 true, ptr %2, align 1
  br label %23

13:                                               ; preds = %8
  %14 = load i64, ptr %3, align 8, !tbaa !7
  %15 = call i64 @rb_id_encoding()
  %16 = icmp eq i64 %14, %15
  br i1 %16, label %17, label %18

17:                                               ; preds = %13
  store i1 true, ptr %2, align 1
  br label %23

18:                                               ; preds = %13
  %19 = load i64, ptr %3, align 8, !tbaa !7
  %20 = call i64 @rb_id2str(i64 noundef %19)
  %21 = icmp ne i64 %20, 0
  %22 = xor i1 %21, true
  store i1 %22, ptr %2, align 1
  br label %23

23:                                               ; preds = %18, %17, %12, %7
  %24 = load i1, ptr %2, align 1
  ret i1 %24
}

; Function Attrs: nounwind sspstrong uwtable
define internal i32 @obj_count_ivars(i64 noundef %0, i64 noundef %1, i64 noundef %2) #0 {
  %4 = alloca i64, align 8
  %5 = alloca i64, align 8
  %6 = alloca i64, align 8
  store i64 %0, ptr %4, align 8, !tbaa !7
  store i64 %1, ptr %5, align 8, !tbaa !7
  store i64 %2, ptr %6, align 8, !tbaa !7
  %7 = load i64, ptr %4, align 8, !tbaa !7
  %8 = call zeroext i1 @to_be_skipped_id(i64 noundef %7)
  br i1 %8, label %24, label %9

9:                                                ; preds = %3
  %10 = load i64, ptr %6, align 8, !tbaa !7
  %11 = inttoptr i64 %10 to ptr
  %12 = load i64, ptr %11, align 8, !tbaa !7
  %13 = add i64 %12, 1
  store i64 %13, ptr %11, align 8, !tbaa !7
  %14 = icmp ne i64 %13, 0
  %15 = xor i1 %14, true
  %16 = xor i1 %15, true
  %17 = xor i1 %16, true
  %18 = zext i1 %17 to i32
  %19 = sext i32 %18 to i64
  %20 = call i64 @llvm.expect.i64(i64 %19, i64 0)
  %21 = icmp ne i64 %20, 0
  br i1 %21, label %22, label %24

22:                                               ; preds = %9
  %23 = load i64, ptr @rb_eRuntimeError, align 8, !tbaa !7
  call void (i64, ptr, ...) @rb_raise(i64 noundef %23, ptr noundef @.str.52) #24
  unreachable

24:                                               ; preds = %9, %3
  ret i32 0
}