; Function Attrs: nounwind sspstrong uwtable
define internal noundef i32 @obj_count_ivars(i64 noundef %0, i64 %1, i64 noundef %2) #0 {
  %4 = load i64, ptr @s_encoding_short, align 8, !tbaa !7
  %5 = icmp eq i64 %0, %4
  %6 = load i64, ptr @s_ruby2_keywords_flag, align 8
  %7 = icmp eq i64 %0, %6
  %or.cond.i = select i1 %5, i1 true, i1 %7
  br i1 %or.cond.i, label %to_be_skipped_id.exit.thread, label %8

8:                                                ; preds = %3
  %9 = tail call i64 @rb_id_encoding() #22
  %10 = icmp eq i64 %0, %9
  br i1 %10, label %to_be_skipped_id.exit.thread, label %to_be_skipped_id.exit

to_be_skipped_id.exit:                            ; preds = %8
  %11 = tail call i64 @rb_id2str(i64 noundef %0) #22
  %.not.i = icmp eq i64 %11, 0
  br i1 %.not.i, label %to_be_skipped_id.exit.thread, label %12

12:                                               ; preds = %to_be_skipped_id.exit
  %13 = inttoptr i64 %2 to ptr
  %14 = load i64, ptr %13, align 8, !tbaa !7
  %15 = add i64 %14, 1
  store i64 %15, ptr %13, align 8, !tbaa !7
  %.not = icmp eq i64 %15, 0
  br i1 %.not, label %16, label %to_be_skipped_id.exit.thread, !prof !138

16:                                               ; preds = %12
  %17 = load i64, ptr @rb_eRuntimeError, align 8, !tbaa !7
  tail call void (i64, ptr, ...) @rb_raise(i64 noundef %17, ptr noundef nonnull @.str.52) #23
  unreachable

to_be_skipped_id.exit.thread:                     ; preds = %8, %3, %12, %to_be_skipped_id.exit
  ret i32 0
}